; Function Attrs: mustprogress nofree nounwind willreturn memory(read, inaccessiblemem: none) uwtable
define hidden noundef i64 @_ZN3ue215minStringPeriodERKNS_11ue2_literalE(ptr noundef nonnull readonly align 8 captures(none) dereferenceable(64) %0) local_unnamed_addr #2 {
  %2 = getelementptr inbounds nuw i8, ptr %0, i64 8
  %3 = load i64, ptr %2, align 8
  %4 = getelementptr inbounds nuw i8, ptr %0, i64 32
  %5 = getelementptr inbounds nuw i8, ptr %0, i64 40
  %6 = load ptr, ptr %5, align 8
  %7 = load ptr, ptr %4, align 8
  %.not78.not.i.i.i = icmp eq ptr %6, %7
  br i1 %.not78.not.i.i.i, label %_ZNK3ue211ue2_literal10any_nocaseEv.exit.thread.i, label %.lr.ph.preheader.i.i.i

.lr.ph.preheader.i.i.i:                           ; preds = %1
  %8 = ptrtoint ptr %6 to i64
  %9 = ptrtoint ptr %7 to i64
  %10 = sub i64 %8, %9
  %11 = ashr exact i64 %10, 3
  %umax.i.i.i = tail call i64 @llvm.umax.i64(i64 %11, i64 1)
  br label %.lr.ph.i.i.i

.lr.ph.i.i.i:                                     ; preds = %.lr.ph.i.i.i, %.lr.ph.preheader.i.i.i
  %.059.i.i.i = phi i64 [ 0, %.lr.ph.preheader.i.i.i ], [ %14, %.lr.ph.i.i.i ]
  %12 = getelementptr inbounds nuw i64, ptr %7, i64 %.059.i.i.i
  %13 = load i64, ptr %12, align 8
  %.not.not.i.not.i.i = icmp ne i64 %13, 0
  %14 = add nuw i64 %.059.i.i.i, 1
  %exitcond.not.i.i.i = icmp eq i64 %14, %umax.i.i.i
  %or.cond.i = select i1 %.not.not.i.not.i.i, i1 true, i1 %exitcond.not.i.i.i
  br i1 %or.cond.i, label %_ZNK3ue211ue2_literal10any_nocaseEv.exit.i, label %.lr.ph.i.i.i, !llvm.loop !9

_ZNK3ue211ue2_literal10any_nocaseEv.exit.i:       ; preds = %.lr.ph.i.i.i
  %15 = load ptr, ptr %0, align 8
  %16 = getelementptr inbounds nuw i8, ptr %15, i64 %3
  %.020.i.i = add i64 %3, -1
  %.not21.i.i = icmp eq i64 %.020.i.i, 0
  br i1 %.not21.i.i, label %_ZN3ue220maxStringSelfOverlapERKNS_11ue2_literalE.exit, label %.lr.ph.i.i

_ZNK3ue211ue2_literal10any_nocaseEv.exit.thread.i: ; preds = %1
  %17 = load ptr, ptr %0, align 8
  %.020.i9.i = add i64 %3, -1
  %.not21.i10.i = icmp eq i64 %.020.i9.i, 0
  br i1 %.not21.i10.i, label %_ZN3ue220maxStringSelfOverlapERKNS_11ue2_literalE.exit, label %_ZN3ue23cmpEPKcS1_mb.exit.i.preheader.i

.lr.ph.i.i:                                       ; preds = %_ZNK3ue211ue2_literal10any_nocaseEv.exit.i
  br i1 %.not.not.i.not.i.i, label %.lr.ph.i.preheader.us.i.i, label %_ZN3ue23cmpEPKcS1_mb.exit.i.preheader.i

_ZN3ue23cmpEPKcS1_mb.exit.i.preheader.i:          ; preds = %.lr.ph.i.i, %_ZNK3ue211ue2_literal10any_nocaseEv.exit.thread.i
  %18 = phi ptr [ %15, %.lr.ph.i.i ], [ %17, %_ZNK3ue211ue2_literal10any_nocaseEv.exit.thread.i ]
  %.020.i1215.i = phi i64 [ %.020.i.i, %.lr.ph.i.i ], [ %.020.i9.i, %_ZNK3ue211ue2_literal10any_nocaseEv.exit.thread.i ]
  %19 = getelementptr inbounds nuw i8, ptr %18, i64 %3
  br label %_ZN3ue23cmpEPKcS1_mb.exit.i.i

.lr.ph.i.preheader.us.i.i:                        ; preds = %.lr.ph.i.i, %.critedge16.loopexit.us.i.i
  %.023.us.i.i = phi i64 [ %.0.us.i.i, %.critedge16.loopexit.us.i.i ], [ %.020.i.i, %.lr.ph.i.i ]
  %.0.in22.us.i.i = phi i64 [ %.023.us.i.i, %.critedge16.loopexit.us.i.i ], [ %3, %.lr.ph.i.i ]
  %20 = sub i64 1, %.0.in22.us.i.i
  %21 = getelementptr inbounds i8, ptr %16, i64 %20
  br label %.lr.ph.i.us.i.i

.lr.ph.i.us.i.i:                                  ; preds = %30, %.lr.ph.i.preheader.us.i.i
  %.01421.i.us.i.i = phi ptr [ %31, %30 ], [ %21, %.lr.ph.i.preheader.us.i.i ]
  %.01520.i.us.i.i = phi ptr [ %32, %30 ], [ %15, %.lr.ph.i.preheader.us.i.i ]
  %22 = load i8, ptr %.01421.i.us.i.i, align 1
  %23 = add i8 %22, -123
  %24 = icmp ult i8 %23, -26
  %25 = add i8 %22, -32
  %.0.i17.i.us.i.i = select i1 %24, i8 %22, i8 %25
  %26 = load i8, ptr %.01520.i.us.i.i, align 1
  %27 = add i8 %26, -123
  %28 = icmp ult i8 %27, -26
  %29 = add i8 %26, -32
  %.0.i.i.us.i.i = select i1 %28, i8 %26, i8 %29
  %.not.i.us.i.i = icmp eq i8 %.0.i17.i.us.i.i, %.0.i.i.us.i.i
  br i1 %.not.i.us.i.i, label %30, label %.critedge16.loopexit.us.i.i

30:                                               ; preds = %.lr.ph.i.us.i.i
  %31 = getelementptr inbounds nuw i8, ptr %.01421.i.us.i.i, i64 1
  %32 = getelementptr inbounds nuw i8, ptr %.01520.i.us.i.i, i64 1
  %.not18.i.us.i.i = icmp ult ptr %31, %16
  br i1 %.not18.i.us.i.i, label %.lr.ph.i.us.i.i, label %_ZN3ue220maxStringSelfOverlapERKNS_11ue2_literalE.exit, !llvm.loop !5

.critedge16.loopexit.us.i.i:                      ; preds = %.lr.ph.i.us.i.i
  %.0.us.i.i = add i64 %.023.us.i.i, -1
  %.not.us.i.i = icmp eq i64 %.0.us.i.i, 0
  br i1 %.not.us.i.i, label %_ZN3ue220maxStringSelfOverlapERKNS_11ue2_literalE.exit, label %.lr.ph.i.preheader.us.i.i, !llvm.loop !10

_ZN3ue23cmpEPKcS1_mb.exit.i.i:                    ; preds = %.critedge16.backedge.i.i, %_ZN3ue23cmpEPKcS1_mb.exit.i.preheader.i
  %.023.i.i = phi i64 [ %.0.i.i, %.critedge16.backedge.i.i ], [ %.020.i1215.i, %_ZN3ue23cmpEPKcS1_mb.exit.i.preheader.i ]
  %.0.in22.i.i = phi i64 [ %.023.i.i, %.critedge16.backedge.i.i ], [ %3, %_ZN3ue23cmpEPKcS1_mb.exit.i.preheader.i ]
  %33 = sub i64 1, %.0.in22.i.i
  %34 = getelementptr inbounds i8, ptr %19, i64 %33
  %bcmp.i.i = tail call i32 @bcmp(ptr %34, ptr %18, i64 %.023.i.i)
  %35 = icmp eq i32 %bcmp.i.i, 0
  br i1 %35, label %_ZN3ue220maxStringSelfOverlapERKNS_11ue2_literalE.exit, label %.critedge16.backedge.i.i

.critedge16.backedge.i.i:                         ; preds = %_ZN3ue23cmpEPKcS1_mb.exit.i.i
  %.0.i.i = add i64 %.023.i.i, -1
  %.not.i.i = icmp eq i64 %.0.i.i, 0
  br i1 %.not.i.i, label %_ZN3ue220maxStringSelfOverlapERKNS_11ue2_literalE.exit, label %_ZN3ue23cmpEPKcS1_mb.exit.i.i, !llvm.loop !10

_ZN3ue220maxStringSelfOverlapERKNS_11ue2_literalE.exit: ; preds = %.critedge16.loopexit.us.i.i, %30, %_ZN3ue23cmpEPKcS1_mb.exit.i.i, %.critedge16.backedge.i.i, %_ZNK3ue211ue2_literal10any_nocaseEv.exit.i, %_ZNK3ue211ue2_literal10any_nocaseEv.exit.thread.i
  %.019.i.i = phi i64 [ 0, %_ZNK3ue211ue2_literal10any_nocaseEv.exit.i ], [ 0, %_ZNK3ue211ue2_literal10any_nocaseEv.exit.thread.i ], [ %.023.i.i, %_ZN3ue23cmpEPKcS1_mb.exit.i.i ], [ 0, %.critedge16.backedge.i.i ], [ %.023.us.i.i, %30 ], [ 0, %.critedge16.loopexit.us.i.i ]
  %36 = sub i64 %3, %.019.i.i
  ret i64 %36
}